; ModuleID = '15/1674.c'
source_filename = "15/1674.c"
target datalayout = "e-m:e-p270:32:32-p271:32:32-p272:64:64-i64:64-f80:128-n8:16:32:64-S128"
target triple = "x86_64-pc-linux-gnu"

@.str = private unnamed_addr constant [3 x i8] c"%d\00", align 1

; Function Attrs: noinline nounwind uwtable
define dso_local i32 @main() #0 {
  %1 = alloca i32, align 4
  %2 = alloca [1000 x [1000 x i32]], align 16
  %3 = alloca i32, align 4
  %4 = alloca i32, align 4
  %5 = alloca i32, align 4
  %6 = alloca i32, align 4
  %7 = alloca i32, align 4
  %8 = alloca i32, align 4
  %9 = alloca i32, align 4
  %10 = alloca i32, align 4
  store i32 0, i32* %1, align 4
  %11 = call i32 (i8*, ...) @__isoc99_scanf(i8* getelementptr inbounds ([3 x i8], [3 x i8]* @.str, i64 0, i64 0), i32* %3)
  store i32 0, i32* %4, align 4
  br label %12

12:                                               ; preds = %33, %0
  %13 = load i32, i32* %4, align 4
  %14 = load i32, i32* %3, align 4
  %15 = icmp slt i32 %13, %14
  br i1 %15, label %16, label %36

16:                                               ; preds = %12
  store i32 0, i32* %5, align 4
  br label %17

17:                                               ; preds = %29, %16
  %18 = load i32, i32* %5, align 4
  %19 = load i32, i32* %3, align 4
  %20 = icmp slt i32 %18, %19
  br i1 %20, label %21, label %32

21:                                               ; preds = %17
  %22 = load i32, i32* %4, align 4
  %23 = sext i32 %22 to i64
  %24 = getelementptr inbounds [1000 x [1000 x i32]], [1000 x [1000 x i32]]* %2, i64 0, i64 %23
  %25 = load i32, i32* %5, align 4
  %26 = sext i32 %25 to i64
  %27 = getelementptr inbounds [1000 x i32], [1000 x i32]* %24, i64 0, i64 %26
  %28 = call i32 (i8*, ...) @__isoc99_scanf(i8* getelementptr inbounds ([3 x i8], [3 x i8]* @.str, i64 0, i64 0), i32* %27)
  br label %29

29:                                               ; preds = %21
  %30 = load i32, i32* %5, align 4
  %31 = add nsw i32 %30, 1
  store i32 %31, i32* %5, align 4
  br label %17

32:                                               ; preds = %17
  br label %33

33:                                               ; preds = %32
  %34 = load i32, i32* %4, align 4
  %35 = add nsw i32 %34, 1
  store i32 %35, i32* %4, align 4
  br label %12

36:                                               ; preds = %12
  store i32 0, i32* %4, align 4
  br label %37

37:                                               ; preds = %83, %36
  %38 = load i32, i32* %4, align 4
  %39 = load i32, i32* %3, align 4
  %40 = icmp slt i32 %38, %39
  br i1 %40, label %41, label %86

41:                                               ; preds = %37
  store i32 0, i32* %5, align 4
  br label %42

42:                                               ; preds = %79, %41
  %43 = load i32, i32* %5, align 4
  %44 = load i32, i32* %3, align 4
  %45 = icmp slt i32 %43, %44
  br i1 %45, label %46, label %82

46:                                               ; preds = %42
  %47 = load i32, i32* %4, align 4
  %48 = sext i32 %47 to i64
  %49 = getelementptr inbounds [1000 x [1000 x i32]], [1000 x [1000 x i32]]* %2, i64 0, i64 %48
  %50 = load i32, i32* %5, align 4
  %51 = sext i32 %50 to i64
  %52 = getelementptr inbounds [1000 x i32], [1000 x i32]* %49, i64 0, i64 %51
  %53 = load i32, i32* %52, align 4
  %54 = icmp eq i32 %53, 0
  br i1 %54, label %55, label %78

55:                                               ; preds = %46
  %56 = load i32, i32* %4, align 4
  %57 = sub nsw i32 %56, 1
  %58 = sext i32 %57 to i64
  %59 = getelementptr inbounds [1000 x [1000 x i32]], [1000 x [1000 x i32]]* %2, i64 0, i64 %58
  %60 = load i32, i32* %5, align 4
  %61 = sext i32 %60 to i64
  %62 = getelementptr inbounds [1000 x i32], [1000 x i32]* %59, i64 0, i64 %61
  %63 = load i32, i32* %62, align 4
  %64 = icmp ne i32 %63, 0
  br i1 %64, label %65, label %78

65:                                               ; preds = %55
  %66 = load i32, i32* %4, align 4
  %67 = sext i32 %66 to i64
  %68 = getelementptr inbounds [1000 x [1000 x i32]], [1000 x [1000 x i32]]* %2, i64 0, i64 %67
  %69 = load i32, i32* %5, align 4
  %70 = sub nsw i32 %69, 1
  %71 = sext i32 %70 to i64
  %72 = getelementptr inbounds [1000 x i32], [1000 x i32]* %68, i64 0, i64 %71
  %73 = load i32, i32* %72, align 4
  %74 = icmp ne i32 %73, 0
  br i1 %74, label %75, label %78

75:                                               ; preds = %65
  %76 = load i32, i32* %4, align 4
  store i32 %76, i32* %6, align 4
  %77 = load i32, i32* %5, align 4
  store i32 %77, i32* %8, align 4
  br label %78

78:                                               ; preds = %75, %65, %55, %46
  br label %79

79:                                               ; preds = %78
  %80 = load i32, i32* %5, align 4
  %81 = add nsw i32 %80, 1
  store i32 %81, i32* %5, align 4
  br label %42

82:                                               ; preds = %42
  br label %83

83:                                               ; preds = %82
  %84 = load i32, i32* %4, align 4
  %85 = add nsw i32 %84, 1
  store i32 %85, i32* %4, align 4
  br label %37

86:                                               ; preds = %37
  %87 = load i32, i32* %3, align 4
  store i32 %87, i32* %4, align 4
  br label %88

88:                                               ; preds = %133, %86
  %89 = load i32, i32* %4, align 4
  %90 = icmp sgt i32 %89, 0
  br i1 %90, label %91, label %136

91:                                               ; preds = %88
  %92 = load i32, i32* %3, align 4
  store i32 %92, i32* %5, align 4
  br label %93

93:                                               ; preds = %129, %91
  %94 = load i32, i32* %5, align 4
  %95 = icmp sgt i32 %94, 0
  br i1 %95, label %96, label %132

96:                                               ; preds = %93
  %97 = load i32, i32* %4, align 4
  %98 = sext i32 %97 to i64
  %99 = getelementptr inbounds [1000 x [1000 x i32]], [1000 x [1000 x i32]]* %2, i64 0, i64 %98
  %100 = load i32, i32* %5, align 4
  %101 = sext i32 %100 to i64
  %102 = getelementptr inbounds [1000 x i32], [1000 x i32]* %99, i64 0, i64 %101
  %103 = load i32, i32* %102, align 4
  %104 = icmp eq i32 %103, 0
  br i1 %104, label %105, label %128

105:                                              ; preds = %96
  %106 = load i32, i32* %4, align 4
  %107 = add nsw i32 %106, 1
  %108 = sext i32 %107 to i64
  %109 = getelementptr inbounds [1000 x [1000 x i32]], [1000 x [1000 x i32]]* %2, i64 0, i64 %108
  %110 = load i32, i32* %5, align 4
  %111 = sext i32 %110 to i64
  %112 = getelementptr inbounds [1000 x i32], [1000 x i32]* %109, i64 0, i64 %111
  %113 = load i32, i32* %112, align 4
  %114 = icmp ne i32 %113, 0
  br i1 %114, label %115, label %128

115:                                              ; preds = %105
  %116 = load i32, i32* %4, align 4
  %117 = sext i32 %116 to i64
  %118 = getelementptr inbounds [1000 x [1000 x i32]], [1000 x [1000 x i32]]* %2, i64 0, i64 %117
  %119 = load i32, i32* %5, align 4
  %120 = add nsw i32 %119, 1
  %121 = sext i32 %120 to i64
  %122 = getelementptr inbounds [1000 x i32], [1000 x i32]* %118, i64 0, i64 %121
  %123 = load i32, i32* %122, align 4
  %124 = icmp ne i32 %123, 0
  br i1 %124, label %125, label %128

125:                                              ; preds = %115
  %126 = load i32, i32* %4, align 4
  store i32 %126, i32* %7, align 4
  %127 = load i32, i32* %5, align 4
  store i32 %127, i32* %9, align 4
  br label %128

128:                                              ; preds = %125, %115, %105, %96
  br label %129

129:                                              ; preds = %128
  %130 = load i32, i32* %5, align 4
  %131 = add nsw i32 %130, -1
  store i32 %131, i32* %5, align 4
  br label %93

132:                                              ; preds = %93
  br label %133

133:                                              ; preds = %132
  %134 = load i32, i32* %4, align 4
  %135 = add nsw i32 %134, -1
  store i32 %135, i32* %4, align 4
  br label %88

136:                                              ; preds = %88
  %137 = load i32, i32* %7, align 4
  %138 = load i32, i32* %6, align 4
  %139 = sub nsw i32 %137, %138
  %140 = sub nsw i32 %139, 1
  %141 = load i32, i32* %9, align 4
  %142 = load i32, i32* %8, align 4
  %143 = sub nsw i32 %141, %142
  %144 = sub nsw i32 %143, 1
  %145 = mul nsw i32 %140, %144
  store i32 %145, i32* %10, align 4
  %146 = load i32, i32* %10, align 4
  %147 = call i32 (i8*, ...) @printf(i8* getelementptr inbounds ([3 x i8], [3 x i8]* @.str, i64 0, i64 0), i32 %146)
  ret i32 0
}

declare dso_local i32 @__isoc99_scanf(i8*, ...) #1

declare dso_local i32 @printf(i8*, ...) #1


!llvm.module.flags = !{!0}
!llvm.ident = !{!1}

!0 = !{i32 1, !"wchar_size", i32 4}
!1 = !{!"clang version 10.0.0-4ubuntu1 "}
