; ModuleID = 'source-C-CXX/14/1674.c'
source_filename = "source-C-CXX/14/1674.c"
target datalayout = "e-m:e-p270:32:32-p271:32:32-p272:64:64-i64:64-f80:128-n8:16:32:64-S128"
target triple = "x86_64-pc-linux-gnu"

@.str = private unnamed_addr constant [3 x i8] c"%d\00", align 1

; Function Attrs: nofree nounwind sspstrong uwtable
define dso_local i32 @main() local_unnamed_addr #0 {
  %1 = alloca [1000 x [1000 x i32]], align 16
  %2 = alloca i32, align 4
  %3 = bitcast [1000 x [1000 x i32]]* %1 to i8*
  call void @llvm.lifetime.start.p0i8(i64 4000000, i8* nonnull %3) #3
  %4 = bitcast i32* %2 to i8*
  call void @llvm.lifetime.start.p0i8(i64 4, i8* nonnull %4) #3
  %5 = call i32 (i8*, ...) @__isoc99_scanf(i8* getelementptr inbounds ([3 x i8], [3 x i8]* @.str, i64 0, i64 0), i32* nonnull %2)
  %6 = load i32, i32* %2, align 4, !tbaa !5
  %7 = icmp sgt i32 %6, 0
  br i1 %7, label %8, label %99

8:                                                ; preds = %0, %57
  %9 = phi i32 [ %58, %57 ], [ %6, %0 ]
  %10 = phi i64 [ %60, %57 ], [ 0, %0 ]
  %11 = icmp sgt i32 %9, 0
  br i1 %11, label %49, label %57

12:                                               ; preds = %57
  %13 = icmp sgt i32 %58, 0
  br i1 %13, label %14, label %99

14:                                               ; preds = %12
  %15 = zext i32 %58 to i64
  br label %16

16:                                               ; preds = %14, %46
  %17 = phi i64 [ 0, %14 ], [ %47, %46 ]
  %18 = phi i32 [ undef, %14 ], [ %43, %46 ]
  %19 = phi i32 [ undef, %14 ], [ %42, %46 ]
  %20 = add nsw i64 %17, -1
  %21 = trunc i64 %17 to i32
  br label %22

22:                                               ; preds = %16, %41
  %23 = phi i64 [ 0, %16 ], [ %44, %41 ]
  %24 = phi i32 [ %18, %16 ], [ %43, %41 ]
  %25 = phi i32 [ %19, %16 ], [ %42, %41 ]
  %26 = getelementptr inbounds [1000 x [1000 x i32]], [1000 x [1000 x i32]]* %1, i64 0, i64 %17, i64 %23
  %27 = load i32, i32* %26, align 4, !tbaa !5
  %28 = icmp eq i32 %27, 0
  br i1 %28, label %29, label %41

29:                                               ; preds = %22
  %30 = getelementptr inbounds [1000 x [1000 x i32]], [1000 x [1000 x i32]]* %1, i64 0, i64 %20, i64 %23
  %31 = load i32, i32* %30, align 4, !tbaa !5
  %32 = icmp eq i32 %31, 0
  br i1 %32, label %41, label %33

33:                                               ; preds = %29
  %34 = add nsw i64 %23, -1
  %35 = getelementptr inbounds [1000 x [1000 x i32]], [1000 x [1000 x i32]]* %1, i64 0, i64 %17, i64 %34
  %36 = load i32, i32* %35, align 4, !tbaa !5
  %37 = icmp eq i32 %36, 0
  %38 = select i1 %37, i32 %25, i32 %21
  %39 = trunc i64 %23 to i32
  %40 = select i1 %37, i32 %24, i32 %39
  br label %41

41:                                               ; preds = %33, %29, %22
  %42 = phi i32 [ %25, %29 ], [ %25, %22 ], [ %38, %33 ]
  %43 = phi i32 [ %24, %29 ], [ %24, %22 ], [ %40, %33 ]
  %44 = add nuw nsw i64 %23, 1
  %45 = icmp eq i64 %44, %15
  br i1 %45, label %46, label %22, !llvm.loop !9

46:                                               ; preds = %41
  %47 = add nuw nsw i64 %17, 1
  %48 = icmp eq i64 %47, %15
  br i1 %48, label %62, label %16, !llvm.loop !11

49:                                               ; preds = %8, %49
  %50 = phi i64 [ %53, %49 ], [ 0, %8 ]
  %51 = getelementptr inbounds [1000 x [1000 x i32]], [1000 x [1000 x i32]]* %1, i64 0, i64 %10, i64 %50
  %52 = call i32 (i8*, ...) @__isoc99_scanf(i8* getelementptr inbounds ([3 x i8], [3 x i8]* @.str, i64 0, i64 0), i32* nonnull %51)
  %53 = add nuw nsw i64 %50, 1
  %54 = load i32, i32* %2, align 4, !tbaa !5
  %55 = sext i32 %54 to i64
  %56 = icmp slt i64 %53, %55
  br i1 %56, label %49, label %57, !llvm.loop !12

57:                                               ; preds = %49, %8
  %58 = phi i32 [ %9, %8 ], [ %54, %49 ]
  %59 = sext i32 %58 to i64
  %60 = add nuw nsw i64 %10, 1
  %61 = icmp slt i64 %60, %59
  br i1 %61, label %8, label %12, !llvm.loop !13

62:                                               ; preds = %46
  br i1 %13, label %63, label %99

63:                                               ; preds = %62
  %64 = zext i32 %58 to i64
  %65 = zext i32 %58 to i64
  br label %66

66:                                               ; preds = %63, %96
  %67 = phi i64 [ %65, %63 ], [ %97, %96 ]
  %68 = phi i32 [ undef, %63 ], [ %93, %96 ]
  %69 = phi i32 [ undef, %63 ], [ %92, %96 ]
  %70 = add nsw i64 %67, 1
  %71 = trunc i64 %67 to i32
  br label %72

72:                                               ; preds = %66, %91
  %73 = phi i64 [ %64, %66 ], [ %95, %91 ]
  %74 = phi i32 [ %68, %66 ], [ %93, %91 ]
  %75 = phi i32 [ %69, %66 ], [ %92, %91 ]
  %76 = getelementptr inbounds [1000 x [1000 x i32]], [1000 x [1000 x i32]]* %1, i64 0, i64 %67, i64 %73
  %77 = load i32, i32* %76, align 4, !tbaa !5
  %78 = icmp eq i32 %77, 0
  br i1 %78, label %79, label %91

79:                                               ; preds = %72
  %80 = getelementptr inbounds [1000 x [1000 x i32]], [1000 x [1000 x i32]]* %1, i64 0, i64 %70, i64 %73
  %81 = load i32, i32* %80, align 4, !tbaa !5
  %82 = icmp eq i32 %81, 0
  br i1 %82, label %91, label %83

83:                                               ; preds = %79
  %84 = add nuw nsw i64 %73, 1
  %85 = getelementptr inbounds [1000 x [1000 x i32]], [1000 x [1000 x i32]]* %1, i64 0, i64 %67, i64 %84
  %86 = load i32, i32* %85, align 4, !tbaa !5
  %87 = icmp eq i32 %86, 0
  %88 = select i1 %87, i32 %75, i32 %71
  %89 = trunc i64 %73 to i32
  %90 = select i1 %87, i32 %74, i32 %89
  br label %91

91:                                               ; preds = %83, %79, %72
  %92 = phi i32 [ %75, %79 ], [ %75, %72 ], [ %88, %83 ]
  %93 = phi i32 [ %74, %79 ], [ %74, %72 ], [ %90, %83 ]
  %94 = icmp sgt i64 %73, 1
  %95 = add nsw i64 %73, -1
  br i1 %94, label %72, label %96, !llvm.loop !15

96:                                               ; preds = %91
  %97 = add nsw i64 %67, -1
  %98 = icmp sgt i64 %67, 1
  br i1 %98, label %66, label %99, !llvm.loop !16

99:                                               ; preds = %96, %12, %0, %62
  %100 = phi i32 [ %43, %62 ], [ undef, %0 ], [ undef, %12 ], [ %43, %96 ]
  %101 = phi i32 [ %42, %62 ], [ undef, %0 ], [ undef, %12 ], [ %42, %96 ]
  %102 = phi i32 [ undef, %62 ], [ undef, %0 ], [ undef, %12 ], [ %92, %96 ]
  %103 = phi i32 [ undef, %62 ], [ undef, %0 ], [ undef, %12 ], [ %93, %96 ]
  %104 = xor i32 %101, -1
  %105 = add i32 %102, %104
  %106 = xor i32 %100, -1
  %107 = add i32 %103, %106
  %108 = mul nsw i32 %107, %105
  %109 = call i32 (i8*, ...) @printf(i8* nonnull dereferenceable(1) getelementptr inbounds ([3 x i8], [3 x i8]* @.str, i64 0, i64 0), i32 %108)
  call void @llvm.lifetime.end.p0i8(i64 4, i8* nonnull %4) #3
  call void @llvm.lifetime.end.p0i8(i64 4000000, i8* nonnull %3) #3
  ret i32 0
}

; Function Attrs: argmemonly mustprogress nofree nosync nounwind willreturn
declare void @llvm.lifetime.start.p0i8(i64 immarg, i8* nocapture) #1

; Function Attrs: nofree nounwind
declare noundef i32 @__isoc99_scanf(i8* nocapture noundef readonly, ...) local_unnamed_addr #2

; Function Attrs: nofree nounwind
declare noundef i32 @printf(i8* nocapture noundef readonly, ...) local_unnamed_addr #2

; Function Attrs: argmemonly mustprogress nofree nosync nounwind willreturn
declare void @llvm.lifetime.end.p0i8(i64 immarg, i8* nocapture) #1


!llvm.module.flags = !{!0, !1, !2, !3}
!llvm.ident = !{!4}

!0 = !{i32 1, !"wchar_size", i32 4}
!1 = !{i32 7, !"PIC Level", i32 2}
!2 = !{i32 7, !"PIE Level", i32 2}
!3 = !{i32 7, !"uwtable", i32 1}
!4 = !{!"clang version 13.0.0"}
!5 = !{!6, !6, i64 0}
!6 = !{!"int", !7, i64 0}
!7 = !{!"omnipotent char", !8, i64 0}
!8 = !{!"Simple C/C++ TBAA"}
!9 = distinct !{!9, !10}
!10 = !{!"llvm.loop.mustprogress"}
!11 = distinct !{!11, !10}
!12 = distinct !{!12, !10}
!13 = distinct !{!13, !10, !14}
!14 = !{!"llvm.loop.unswitch.partial.disable"}
!15 = distinct !{!15, !10}
!16 = distinct !{!16, !10}
